target datalayout = "e-m:e-p270:32:32-p271:32:32-p272:64:64-i64:64-i128:128-f80:128-n8:16:32:64-S128"
target triple = "x86_64-pc-linux-gnu"

%"struct.memarena::arena_chunk" = type { ptr, i64, i64 }
%class.memarena = type { %"struct.memarena::arena_chunk", ptr, i32, i64, i64 }

; Function Attrs: mustprogress nounwind uwtable
define linkonce_odr void @_ZN8memarena11arena_chunkC2Ev(ptr noundef nonnull align 8 dereferenceable(24) %0) unnamed_addr #2 comdat align 2 {
  %2 = alloca ptr, align 8
  store ptr %0, ptr %2, align 8, !tbaa !24
  %3 = load ptr, ptr %2, align 8
  %4 = getelementptr inbounds nuw %"struct.memarena::arena_chunk", ptr %3, i32 0, i32 0
  store ptr null, ptr %4, align 8, !tbaa !25
  %5 = getelementptr inbounds nuw %"struct.memarena::arena_chunk", ptr %3, i32 0, i32 1
  store i64 0, ptr %5, align 8, !tbaa !26
  %6 = getelementptr inbounds nuw %"struct.memarena::arena_chunk", ptr %3, i32 0, i32 2
  store i64 0, ptr %6, align 8, !tbaa !27
  ret void
}

; Function Attrs: mustprogress uwtable
define void @_ZN8memarena7destroyEv(ptr noundef nonnull align 8 dereferenceable(56) %0) #0 align 2 {
  %2 = alloca ptr, align 8
  %3 = alloca i32, align 4
  %4 = alloca %"struct.memarena::arena_chunk", align 8
  store ptr %0, ptr %2, align 8, !tbaa !4
  %5 = load ptr, ptr %2, align 8
  %6 = getelementptr inbounds nuw %class.memarena, ptr %5, i32 0, i32 0
  %7 = getelementptr inbounds nuw %"struct.memarena::arena_chunk", ptr %6, i32 0, i32 0
  %8 = load ptr, ptr %7, align 8, !tbaa !23
  %9 = icmp ne ptr %8, null
  br i1 %9, label %10, label %14

10:                                               ; preds = %1
  %11 = getelementptr inbounds nuw %class.memarena, ptr %5, i32 0, i32 0
  %12 = getelementptr inbounds nuw %"struct.memarena::arena_chunk", ptr %11, i32 0, i32 0
  %13 = load ptr, ptr %12, align 8, !tbaa !23
  call void @_Z9toku_freePv(ptr noundef %13)
  br label %14

14:                                               ; preds = %10, %1
  call void @llvm.lifetime.start.p0(i64 4, ptr %3) #6
  store i32 0, ptr %3, align 4, !tbaa !28
  br label %15

15:                                               ; preds = %29, %14
  %16 = load i32, ptr %3, align 4, !tbaa !28
  %17 = getelementptr inbounds nuw %class.memarena, ptr %5, i32 0, i32 2
  %18 = load i32, ptr %17, align 8, !tbaa !21
  %19 = icmp slt i32 %16, %18
  br i1 %19, label %21, label %20

20:                                               ; preds = %15
  call void @llvm.lifetime.end.p0(i64 4, ptr %3) #6
  br label %32

21:                                               ; preds = %15
  %22 = getelementptr inbounds nuw %class.memarena, ptr %5, i32 0, i32 1
  %23 = load ptr, ptr %22, align 8, !tbaa !14
  %24 = load i32, ptr %3, align 4, !tbaa !28
  %25 = sext i32 %24 to i64
  %26 = getelementptr inbounds %"struct.memarena::arena_chunk", ptr %23, i64 %25
  %27 = getelementptr inbounds nuw %"struct.memarena::arena_chunk", ptr %26, i32 0, i32 0
  %28 = load ptr, ptr %27, align 8, !tbaa !25
  call void @_Z9toku_freePv(ptr noundef %28)
  br label %29

29:                                               ; preds = %21
  %30 = load i32, ptr %3, align 4, !tbaa !28
  %31 = add nsw i32 %30, 1
  store i32 %31, ptr %3, align 4, !tbaa !28
  br label %15, !llvm.loop !29

32:                                               ; preds = %20
  %33 = getelementptr inbounds nuw %class.memarena, ptr %5, i32 0, i32 1
  %34 = load ptr, ptr %33, align 8, !tbaa !14
  %35 = icmp ne ptr %34, null
  br i1 %35, label %36, label %39

36:                                               ; preds = %32
  %37 = getelementptr inbounds nuw %class.memarena, ptr %5, i32 0, i32 1
  %38 = load ptr, ptr %37, align 8, !tbaa !14
  call void @_Z9toku_freePv(ptr noundef %38)
  br label %39

39:                                               ; preds = %36, %32
  call void @llvm.lifetime.start.p0(i64 24, ptr %4) #6
  call void @_ZN8memarena11arena_chunkC2Ev(ptr noundef nonnull align 8 dereferenceable(24) %4)
  %40 = getelementptr inbounds nuw %class.memarena, ptr %5, i32 0, i32 0
  call void @llvm.memcpy.p0.p0.i64(ptr align 8 %40, ptr align 8 %4, i64 24, i1 false), !tbaa.struct !11
  call void @llvm.lifetime.end.p0(i64 24, ptr %4) #6
  %41 = getelementptr inbounds nuw %class.memarena, ptr %5, i32 0, i32 1
  store ptr null, ptr %41, align 8, !tbaa !14
  %42 = getelementptr inbounds nuw %class.memarena, ptr %5, i32 0, i32 2
  store i32 0, ptr %42, align 8, !tbaa !21
  ret void
}