; Function Attrs: mustprogress uwtable
define void @_ZN8memarena7destroyEv(ptr noundef nonnull align 8 captures(none) dereferenceable(56) %0) local_unnamed_addr #0 align 2 {
  %2 = load ptr, ptr %0, align 8, !tbaa !16
  %.not = icmp eq ptr %2, null
  br i1 %.not, label %4, label %3

3:                                                ; preds = %1
  tail call void @_Z9toku_freePv(ptr noundef nonnull %2)
  br label %4

4:                                                ; preds = %3, %1
  %5 = getelementptr inbounds nuw i8, ptr %0, i64 32
  %6 = load i32, ptr %5, align 8, !tbaa !14
  %7 = icmp sgt i32 %6, 0
  br i1 %7, label %.lr.ph, label %._crit_edge

.lr.ph:                                           ; preds = %4
  %8 = getelementptr inbounds nuw i8, ptr %0, i64 24
  br label %11

._crit_edge:                                      ; preds = %11, %4
  %9 = getelementptr inbounds nuw i8, ptr %0, i64 24
  %10 = load ptr, ptr %9, align 8, !tbaa !4
  %.not5 = icmp eq ptr %10, null
  br i1 %.not5, label %19, label %18

11:                                               ; preds = %.lr.ph, %11
  %indvars.iv = phi i64 [ 0, %.lr.ph ], [ %indvars.iv.next, %11 ]
  %12 = load ptr, ptr %8, align 8, !tbaa !4
  %13 = getelementptr inbounds nuw %"struct.memarena::arena_chunk", ptr %12, i64 %indvars.iv
  %14 = load ptr, ptr %13, align 8, !tbaa !17
  tail call void @_Z9toku_freePv(ptr noundef %14)
  %indvars.iv.next = add nuw nsw i64 %indvars.iv, 1
  %15 = load i32, ptr %5, align 8, !tbaa !14
  %16 = sext i32 %15 to i64
  %17 = icmp slt i64 %indvars.iv.next, %16
  br i1 %17, label %11, label %._crit_edge, !llvm.loop !18

18:                                               ; preds = %._crit_edge
  tail call void @_Z9toku_freePv(ptr noundef nonnull %10)
  br label %19

19:                                               ; preds = %18, %._crit_edge
  tail call void @llvm.memset.p0.i64(ptr noundef nonnull align 8 dereferenceable(24) %0, i8 0, i64 24, i1 false)
  store ptr null, ptr %9, align 8, !tbaa !4
  store i32 0, ptr %5, align 8, !tbaa !14
  ret void
}